target datalayout = "e-m:e-p270:32:32-p271:32:32-p272:64:64-i64:64-i128:128-f80:128-n8:16:32:64-S128"
target triple = "x86_64-pc-linux-gnu"

%struct.strbuf = type { i64, i64, ptr }
%struct.ls_refs_data = type { i32, i32, %struct.strvec, %struct.strbuf, %struct.strvec, i8 }
%struct.strvec = type { ptr, i64, i64 }
%struct.packet_reader = type { i32, ptr, i64, ptr, i32, i32, i32, i32, ptr, i32, i8, ptr, ptr, %struct.strbuf }
%struct.object_id = type { [32 x i8], i32 }

@.str = private unnamed_addr constant [5 x i8] c"peel\00", align 1
@.str.1 = private unnamed_addr constant [8 x i8] c"symrefs\00", align 1
@.str.2 = private unnamed_addr constant [12 x i8] c"ref-prefix \00", align 1
@.str.3 = private unnamed_addr constant [7 x i8] c"unborn\00", align 1
@.str.4 = private unnamed_addr constant [22 x i8] c"unexpected line: '%s'\00", align 1
@.str.5 = private unnamed_addr constant [39 x i8] c"expected flush after ls-refs arguments\00", align 1
@.str.6 = private unnamed_addr constant [1 x i8] zeroinitializer, align 1
@stdout = external global ptr, align 8
@the_repository = external global ptr, align 8
@__const.send_possibly_unborn_head.namespaced = private unnamed_addr constant %struct.strbuf { i64 0, i64 0, ptr @strbuf_slopbuf }, align 8
@.str.13 = private unnamed_addr constant [7 x i8] c"%sHEAD\00", align 1
@is_null_oid.null_hash = internal constant [32 x i8] zeroinitializer, align 16

; Function Attrs: inlinehint nounwind uwtable
define internal i32 @is_null_oid(ptr noundef %0) #4 {
  %2 = alloca ptr, align 8
  store ptr %0, ptr %2, align 8, !tbaa !41
  %3 = load ptr, ptr %2, align 8, !tbaa !41
  %4 = getelementptr inbounds nuw %struct.object_id, ptr %3, i32 0, i32 0
  %5 = getelementptr inbounds [32 x i8], ptr %4, i64 0, i64 0
  %6 = call i32 @memcmp(ptr noundef %5, ptr noundef @is_null_oid.null_hash, i64 noundef 32) #10
  %7 = icmp ne i32 %6, 0
  %8 = xor i1 %7, true
  %9 = zext i1 %8 to i32
  ret i32 %9
}

; Function Attrs: nounwind uwtable
define internal void @send_possibly_unborn_head(ptr noundef %0) #0 {
  %2 = alloca ptr, align 8
  %3 = alloca %struct.strbuf, align 8
  %4 = alloca %struct.object_id, align 4
  %5 = alloca i32, align 4
  %6 = alloca i32, align 4
  %7 = alloca i32, align 4
  store ptr %0, ptr %2, align 8, !tbaa !34
  call void @llvm.lifetime.start.p0(i64 24, ptr %3) #9
  call void @llvm.memcpy.p0.p0.i64(ptr align 8 %3, ptr align 8 @__const.send_possibly_unborn_head.namespaced, i64 24, i1 false)
  call void @llvm.lifetime.start.p0(i64 36, ptr %4) #9
  call void @llvm.lifetime.start.p0(i64 4, ptr %5) #9
  call void @llvm.lifetime.start.p0(i64 4, ptr %6) #9
  %8 = call ptr @get_git_namespace()
  call void (ptr, ptr, ...) @strbuf_addf(ptr noundef %3, ptr noundef @.str.13, ptr noundef %8)
  %9 = load ptr, ptr @the_repository, align 8, !tbaa !4
  %10 = call ptr @get_main_ref_store(ptr noundef %9)
  %11 = getelementptr inbounds nuw %struct.strbuf, ptr %3, i32 0, i32 2
  %12 = load ptr, ptr %11, align 8, !tbaa !40
  %13 = call ptr @refs_resolve_ref_unsafe(ptr noundef %10, ptr noundef %12, i32 noundef 0, ptr noundef %4, ptr noundef %5)
  %14 = icmp ne ptr %13, null
  br i1 %14, label %16, label %15

15:                                               ; preds = %1
  store i32 1, ptr %7, align 4
  br label %49

16:                                               ; preds = %1
  %17 = call i32 @is_null_oid(ptr noundef %4)
  store i32 %17, ptr %6, align 4, !tbaa !39
  %18 = load i32, ptr %6, align 4, !tbaa !39
  %19 = icmp ne i32 %18, 0
  br i1 %19, label %20, label %36

20:                                               ; preds = %16
  %21 = load ptr, ptr %2, align 8, !tbaa !34
  %22 = getelementptr inbounds nuw %struct.ls_refs_data, ptr %21, i32 0, i32 5
  %23 = load i8, ptr %22, align 8
  %24 = and i8 %23, 1
  %25 = zext i8 %24 to i32
  %26 = icmp ne i32 %25, 0
  br i1 %26, label %27, label %48

27:                                               ; preds = %20
  %28 = load ptr, ptr %2, align 8, !tbaa !34
  %29 = getelementptr inbounds nuw %struct.ls_refs_data, ptr %28, i32 0, i32 1
  %30 = load i32, ptr %29, align 4, !tbaa !23
  %31 = icmp ne i32 %30, 0
  br i1 %31, label %32, label %48

32:                                               ; preds = %27
  %33 = load i32, ptr %5, align 4, !tbaa !39
  %34 = and i32 %33, 1
  %35 = icmp ne i32 %34, 0
  br i1 %35, label %36, label %48

36:                                               ; preds = %32, %16
  %37 = getelementptr inbounds nuw %struct.strbuf, ptr %3, i32 0, i32 2
  %38 = load ptr, ptr %37, align 8, !tbaa !40
  %39 = load i32, ptr %6, align 4, !tbaa !39
  %40 = icmp ne i32 %39, 0
  br i1 %40, label %41, label %42

41:                                               ; preds = %36
  br label %43

42:                                               ; preds = %36
  br label %43

43:                                               ; preds = %42, %41
  %44 = phi ptr [ null, %41 ], [ %4, %42 ]
  %45 = load i32, ptr %5, align 4, !tbaa !39
  %46 = load ptr, ptr %2, align 8, !tbaa !34
  %47 = call i32 @send_ref(ptr noundef %38, ptr noundef null, ptr noundef %44, i32 noundef %45, ptr noundef %46)
  br label %48

48:                                               ; preds = %43, %32, %27, %20
  call void @strbuf_release(ptr noundef %3)
  store i32 0, ptr %7, align 4
  br label %49

49:                                               ; preds = %48, %15
  call void @llvm.lifetime.end.p0(i64 4, ptr %6) #9
  call void @llvm.lifetime.end.p0(i64 4, ptr %5) #9
  call void @llvm.lifetime.end.p0(i64 36, ptr %4) #9
  call void @llvm.lifetime.end.p0(i64 24, ptr %3) #9
  %50 = load i32, ptr %7, align 4
  switch i32 %50, label %52 [
    i32 0, label %51
    i32 1, label %51
  ]

51:                                               ; preds = %49, %49
  ret void

52:                                               ; preds = %49
  unreachable
}

; Function Attrs: inlinehint nounwind uwtable
define internal zeroext i1 @skip_prefix(ptr noundef %0, ptr noundef %1, ptr noundef %2) #4 {
  %4 = alloca i1, align 1
  %5 = alloca ptr, align 8
  %6 = alloca ptr, align 8
  %7 = alloca ptr, align 8
  store ptr %0, ptr %5, align 8, !tbaa !18
  store ptr %1, ptr %6, align 8, !tbaa !18
  store ptr %2, ptr %7, align 8, !tbaa !36
  br label %8

8:                                                ; preds = %16, %3
  %9 = load ptr, ptr %6, align 8, !tbaa !18
  %10 = load i8, ptr %9, align 1, !tbaa !37
  %11 = icmp ne i8 %10, 0
  br i1 %11, label %15, label %12

12:                                               ; preds = %8
  %13 = load ptr, ptr %5, align 8, !tbaa !18
  %14 = load ptr, ptr %7, align 8, !tbaa !36
  store ptr %13, ptr %14, align 8, !tbaa !18
  store i1 true, ptr %4, align 1
  br label %27

15:                                               ; preds = %8
  br label %16

16:                                               ; preds = %15
  %17 = load ptr, ptr %5, align 8, !tbaa !18
  %18 = getelementptr inbounds nuw i8, ptr %17, i32 1
  store ptr %18, ptr %5, align 8, !tbaa !18
  %19 = load i8, ptr %17, align 1, !tbaa !37
  %20 = sext i8 %19 to i32
  %21 = load ptr, ptr %6, align 8, !tbaa !18
  %22 = getelementptr inbounds nuw i8, ptr %21, i32 1
  store ptr %22, ptr %6, align 8, !tbaa !18
  %23 = load i8, ptr %21, align 1, !tbaa !37
  %24 = sext i8 %23 to i32
  %25 = icmp eq i32 %20, %24
  br i1 %25, label %8, label %26, !llvm.loop !38

26:                                               ; preds = %16
  store i1 false, ptr %4, align 1
  br label %27

27:                                               ; preds = %26, %12
  %28 = load i1, ptr %4, align 1
  ret i1 %28
}

; Function Attrs: inlinehint nounwind uwtable
define internal void @git_config(ptr noundef %0, ptr noundef %1) #4 {
  %3 = alloca ptr, align 8
  %4 = alloca ptr, align 8
  store ptr %0, ptr %3, align 8, !tbaa !31
  store ptr %1, ptr %4, align 8, !tbaa !31
  %5 = load ptr, ptr @the_repository, align 8, !tbaa !4
  %6 = load ptr, ptr %3, align 8, !tbaa !31
  %7 = load ptr, ptr %4, align 8, !tbaa !31
  call void @repo_config(ptr noundef %5, ptr noundef %6, ptr noundef %7)
  ret void
}

; Function Attrs: nounwind uwtable
define dso_local i32 @ls_refs(ptr noundef %0, ptr noundef %1) #0 {
  %3 = alloca ptr, align 8
  %4 = alloca ptr, align 8
  %5 = alloca %struct.ls_refs_data, align 8
  %6 = alloca ptr, align 8
  %7 = alloca ptr, align 8
  store ptr %0, ptr %3, align 8, !tbaa !4
  store ptr %1, ptr %4, align 8, !tbaa !9
  call void @llvm.lifetime.start.p0(i64 88, ptr %5) #9
  call void @llvm.memset.p0.i64(ptr align 8 %5, i8 0, i64 88, i1 false)
  %8 = getelementptr inbounds nuw %struct.ls_refs_data, ptr %5, i32 0, i32 2
  call void @strvec_init(ptr noundef %8)
  %9 = getelementptr inbounds nuw %struct.ls_refs_data, ptr %5, i32 0, i32 3
  call void @strbuf_init(ptr noundef %9, i64 noundef 0)
  %10 = getelementptr inbounds nuw %struct.ls_refs_data, ptr %5, i32 0, i32 4
  call void @strvec_init(ptr noundef %10)
  call void @git_config(ptr noundef @ls_refs_config, ptr noundef %5)
  br label %11

11:                                               ; preds = %66, %2
  %12 = load ptr, ptr %4, align 8, !tbaa !9
  %13 = call i32 @packet_reader_read(ptr noundef %12)
  %14 = icmp eq i32 %13, 1
  br i1 %14, label %15, label %67

15:                                               ; preds = %11
  call void @llvm.lifetime.start.p0(i64 8, ptr %6) #9
  %16 = load ptr, ptr %4, align 8, !tbaa !9
  %17 = getelementptr inbounds nuw %struct.packet_reader, ptr %16, i32 0, i32 8
  %18 = load ptr, ptr %17, align 8, !tbaa !11
  store ptr %18, ptr %6, align 8, !tbaa !18
  call void @llvm.lifetime.start.p0(i64 8, ptr %7) #9
  %19 = load ptr, ptr %6, align 8, !tbaa !18
  %20 = call i32 @strcmp(ptr noundef @.str, ptr noundef %19) #10
  %21 = icmp ne i32 %20, 0
  br i1 %21, label %24, label %22

22:                                               ; preds = %15
  %23 = getelementptr inbounds nuw %struct.ls_refs_data, ptr %5, i32 0, i32 0
  store i32 1, ptr %23, align 8, !tbaa !19
  br label %66

24:                                               ; preds = %15
  %25 = load ptr, ptr %6, align 8, !tbaa !18
  %26 = call i32 @strcmp(ptr noundef @.str.1, ptr noundef %25) #10
  %27 = icmp ne i32 %26, 0
  br i1 %27, label %30, label %28

28:                                               ; preds = %24
  %29 = getelementptr inbounds nuw %struct.ls_refs_data, ptr %5, i32 0, i32 1
  store i32 1, ptr %29, align 4, !tbaa !23
  br label %65

30:                                               ; preds = %24
  %31 = load ptr, ptr %6, align 8, !tbaa !18
  %32 = call zeroext i1 @skip_prefix(ptr noundef %31, ptr noundef @.str.2, ptr noundef %7)
  br i1 %32, label %33, label %43

33:                                               ; preds = %30
  %34 = getelementptr inbounds nuw %struct.ls_refs_data, ptr %5, i32 0, i32 2
  %35 = getelementptr inbounds nuw %struct.strvec, ptr %34, i32 0, i32 1
  %36 = load i64, ptr %35, align 8, !tbaa !24
  %37 = icmp ult i64 %36, 65536
  br i1 %37, label %38, label %42

38:                                               ; preds = %33
  %39 = getelementptr inbounds nuw %struct.ls_refs_data, ptr %5, i32 0, i32 2
  %40 = load ptr, ptr %7, align 8, !tbaa !18
  %41 = call ptr @strvec_push(ptr noundef %39, ptr noundef %40)
  br label %42

42:                                               ; preds = %38, %33
  br label %64

43:                                               ; preds = %30
  %44 = load ptr, ptr %6, align 8, !tbaa !18
  %45 = call i32 @strcmp(ptr noundef @.str.3, ptr noundef %44) #10
  %46 = icmp ne i32 %45, 0
  br i1 %46, label %60, label %47

47:                                               ; preds = %43
  %48 = load ptr, ptr %3, align 8, !tbaa !4
  %49 = call i32 @unborn_config(ptr noundef %48)
  %50 = icmp ne i32 %49, 0
  %51 = xor i1 %50, true
  %52 = xor i1 %51, true
  %53 = zext i1 %52 to i32
  %54 = getelementptr inbounds nuw %struct.ls_refs_data, ptr %5, i32 0, i32 5
  %55 = trunc i32 %53 to i8
  %56 = load i8, ptr %54, align 8
  %57 = and i8 %55, 1
  %58 = and i8 %56, -2
  %59 = or i8 %58, %57
  store i8 %59, ptr %54, align 8
  br label %63

60:                                               ; preds = %43
  %61 = call ptr @_(ptr noundef @.str.4)
  %62 = load ptr, ptr %6, align 8, !tbaa !18
  call void (ptr, ...) @die(ptr noundef %61, ptr noundef %62) #11
  unreachable

63:                                               ; preds = %47
  br label %64

64:                                               ; preds = %63, %42
  br label %65

65:                                               ; preds = %64, %28
  br label %66

66:                                               ; preds = %65, %22
  call void @llvm.lifetime.end.p0(i64 8, ptr %7) #9
  call void @llvm.lifetime.end.p0(i64 8, ptr %6) #9
  br label %11, !llvm.loop !25

67:                                               ; preds = %11
  %68 = load ptr, ptr %4, align 8, !tbaa !9
  %69 = getelementptr inbounds nuw %struct.packet_reader, ptr %68, i32 0, i32 6
  %70 = load i32, ptr %69, align 8, !tbaa !27
  %71 = icmp ne i32 %70, 2
  br i1 %71, label %72, label %74

72:                                               ; preds = %67
  %73 = call ptr @_(ptr noundef @.str.5)
  call void (ptr, ...) @die(ptr noundef %73) #11
  unreachable

74:                                               ; preds = %67
  %75 = getelementptr inbounds nuw %struct.ls_refs_data, ptr %5, i32 0, i32 2
  %76 = getelementptr inbounds nuw %struct.strvec, ptr %75, i32 0, i32 1
  %77 = load i64, ptr %76, align 8, !tbaa !24
  %78 = icmp uge i64 %77, 65536
  br i1 %78, label %79, label %81

79:                                               ; preds = %74
  %80 = getelementptr inbounds nuw %struct.ls_refs_data, ptr %5, i32 0, i32 2
  call void @strvec_clear(ptr noundef %80)
  br label %81

81:                                               ; preds = %79, %74
  call void @send_possibly_unborn_head(ptr noundef %5)
  %82 = getelementptr inbounds nuw %struct.ls_refs_data, ptr %5, i32 0, i32 2
  %83 = getelementptr inbounds nuw %struct.strvec, ptr %82, i32 0, i32 1
  %84 = load i64, ptr %83, align 8, !tbaa !24
  %85 = icmp ne i64 %84, 0
  br i1 %85, label %89, label %86

86:                                               ; preds = %81
  %87 = getelementptr inbounds nuw %struct.ls_refs_data, ptr %5, i32 0, i32 2
  %88 = call ptr @strvec_push(ptr noundef %87, ptr noundef @.str.6)
  br label %89

89:                                               ; preds = %86, %81
  %90 = load ptr, ptr %3, align 8, !tbaa !4
  %91 = call ptr @get_main_ref_store(ptr noundef %90)
  %92 = call ptr @get_git_namespace()
  %93 = getelementptr inbounds nuw %struct.ls_refs_data, ptr %5, i32 0, i32 2
  %94 = getelementptr inbounds nuw %struct.strvec, ptr %93, i32 0, i32 0
  %95 = load ptr, ptr %94, align 8, !tbaa !28
  %96 = getelementptr inbounds nuw %struct.ls_refs_data, ptr %5, i32 0, i32 4
  %97 = call ptr @hidden_refs_to_excludes(ptr noundef %96)
  %98 = call i32 @refs_for_each_fullref_in_prefixes(ptr noundef %91, ptr noundef %92, ptr noundef %95, ptr noundef %97, ptr noundef @send_ref, ptr noundef %5)
  %99 = load ptr, ptr @stdout, align 8, !tbaa !29
  call void @packet_fflush(ptr noundef %99)
  %100 = getelementptr inbounds nuw %struct.ls_refs_data, ptr %5, i32 0, i32 2
  call void @strvec_clear(ptr noundef %100)
  %101 = getelementptr inbounds nuw %struct.ls_refs_data, ptr %5, i32 0, i32 3
  call void @strbuf_release(ptr noundef %101)
  %102 = getelementptr inbounds nuw %struct.ls_refs_data, ptr %5, i32 0, i32 4
  call void @strvec_clear(ptr noundef %102)
  call void @llvm.lifetime.end.p0(i64 88, ptr %5) #9
  ret i32 0
}